; Function Attrs: nounwind uwtable
define dso_local noalias noundef ptr @xstrndup(ptr noundef %0, i64 noundef %1) local_unnamed_addr #0 {
  %3 = tail call ptr @memchr(ptr noundef %0, i32 noundef 0, i64 noundef %1) #23
  %.not = icmp eq ptr %3, null
  %4 = ptrtoint ptr %3 to i64
  %5 = ptrtoint ptr %0 to i64
  %6 = sub i64 %4, %5
  %7 = select i1 %.not, i64 %1, i64 %6
  %8 = icmp eq i64 %7, -1
  br i1 %8, label %9, label %10

9:                                                ; preds = %2
  tail call void (ptr, ...) @die(ptr noundef nonnull @.str.30) #21
  unreachable

10:                                               ; preds = %2
  %11 = add nuw i64 %7, 1
  %12 = load i64, ptr @memory_limit_check.limit, align 8, !tbaa !4
  %.not.i.i.i.i.i = icmp eq i64 %12, 0
  br i1 %.not.i.i.i.i.i, label %13, label %15

13:                                               ; preds = %10
  %14 = tail call i64 @git_env_ulong(ptr noundef nonnull @.str.31, i64 noundef 0) #20
  %.not7.i.i.i.i.i = icmp eq i64 %14, 0
  %spec.store.select.i.i.i.i.i = select i1 %.not7.i.i.i.i.i, i64 -1, i64 %14
  store i64 %spec.store.select.i.i.i.i.i, ptr @memory_limit_check.limit, align 8
  br label %15

15:                                               ; preds = %13, %10
  %16 = phi i64 [ %spec.store.select.i.i.i.i.i, %13 ], [ %12, %10 ]
  %.not.i.i.i = icmp ult i64 %7, %16
  br i1 %.not.i.i.i, label %18, label %17

17:                                               ; preds = %15
  tail call void (ptr, ...) @die(ptr noundef nonnull @.str.32, i64 noundef %11, i64 noundef %16) #21
  unreachable

18:                                               ; preds = %15
  %19 = tail call noalias ptr @malloc(i64 noundef %11) #22
  %.not12.i.i.i.i = icmp eq ptr %19, null
  br i1 %.not12.i.i.i.i, label %20, label %xmemdupz.exit

20:                                               ; preds = %18
  tail call void (ptr, ...) @die(ptr noundef nonnull @.str.29, i64 noundef %11) #21
  unreachable

xmemdupz.exit:                                    ; preds = %18
  %21 = getelementptr inbounds nuw i8, ptr %19, i64 %7
  store i8 0, ptr %21, align 1, !tbaa !8
  tail call void @llvm.memcpy.p0.p0.i64(ptr nonnull align 1 %19, ptr readonly align 1 %0, i64 %7, i1 false)
  ret ptr %19
}